target datalayout = "e-m:e-p270:32:32-p271:32:32-p272:64:64-i64:64-i128:128-f80:128-n8:16:32:64-S128"
target triple = "x86_64-pc-linux-gnu"

%struct.xplstate = type { ptr, ptr, i32, i32, i32, i32, [256 x i32], [64 x i32], [64 x i32], i32, i32, i32, i16, i16, [8192 x i8], i32, i8, i8, i8 }

; Function Attrs: nounwind uwtable
define internal void @bs(ptr noundef %0, ptr noundef %1, i32 noundef %2) #0 {
  %4 = alloca ptr, align 8
  %5 = alloca ptr, align 8
  %6 = alloca i32, align 4
  %7 = alloca i8, align 1
  %8 = alloca i32, align 4
  %9 = alloca i32, align 4
  %10 = alloca i32, align 4
  %11 = alloca i32, align 4
  store ptr %0, ptr %4, align 8
  store ptr %1, ptr %5, align 8
  store i32 %2, ptr %6, align 4
  store i32 0, ptr %8, align 4
  store i32 0, ptr %9, align 4
  store i32 0, ptr %10, align 4
  %12 = load i32, ptr %6, align 4
  store i32 %12, ptr %11, align 4
  br label %13

13:                                               ; preds = %133, %3
  %14 = load i32, ptr %10, align 4
  %15 = icmp ne i32 %14, 0
  %16 = xor i1 %15, true
  br i1 %16, label %17, label %138

17:                                               ; preds = %13
  store i32 1, ptr %10, align 4
  br label %18

18:                                               ; preds = %68, %17
  %19 = load i32, ptr %8, align 4
  %20 = load i32, ptr %11, align 4
  %21 = icmp ult i32 %19, %20
  br i1 %21, label %22, label %71

22:                                               ; preds = %18
  %23 = load ptr, ptr %5, align 8
  %24 = load ptr, ptr %4, align 8
  %25 = load i32, ptr %8, align 4
  %26 = zext i32 %25 to i64
  %27 = getelementptr inbounds i8, ptr %24, i64 %26
  %28 = load i8, ptr %27, align 1
  %29 = zext i8 %28 to i64
  %30 = getelementptr inbounds i8, ptr %23, i64 %29
  %31 = load i8, ptr %30, align 1
  %32 = zext i8 %31 to i32
  %33 = load ptr, ptr %5, align 8
  %34 = load ptr, ptr %4, align 8
  %35 = load i32, ptr %8, align 4
  %36 = add i32 %35, 1
  %37 = zext i32 %36 to i64
  %38 = getelementptr inbounds i8, ptr %34, i64 %37
  %39 = load i8, ptr %38, align 1
  %40 = zext i8 %39 to i64
  %41 = getelementptr inbounds i8, ptr %33, i64 %40
  %42 = load i8, ptr %41, align 1
  %43 = zext i8 %42 to i32
  %44 = icmp sgt i32 %32, %43
  br i1 %44, label %45, label %67

45:                                               ; preds = %22
  %46 = load ptr, ptr %4, align 8
  %47 = load i32, ptr %8, align 4
  %48 = zext i32 %47 to i64
  %49 = getelementptr inbounds i8, ptr %46, i64 %48
  %50 = load i8, ptr %49, align 1
  store i8 %50, ptr %7, align 1
  %51 = load ptr, ptr %4, align 8
  %52 = load i32, ptr %8, align 4
  %53 = add i32 %52, 1
  %54 = zext i32 %53 to i64
  %55 = getelementptr inbounds i8, ptr %51, i64 %54
  %56 = load i8, ptr %55, align 1
  %57 = load ptr, ptr %4, align 8
  %58 = load i32, ptr %8, align 4
  %59 = zext i32 %58 to i64
  %60 = getelementptr inbounds i8, ptr %57, i64 %59
  store i8 %56, ptr %60, align 1
  %61 = load i8, ptr %7, align 1
  %62 = load ptr, ptr %4, align 8
  %63 = load i32, ptr %8, align 4
  %64 = add i32 %63, 1
  %65 = zext i32 %64 to i64
  %66 = getelementptr inbounds i8, ptr %62, i64 %65
  store i8 %61, ptr %66, align 1
  store i32 0, ptr %10, align 4
  br label %67

67:                                               ; preds = %45, %22
  br label %68

68:                                               ; preds = %67
  %69 = load i32, ptr %8, align 4
  %70 = add i32 %69, 1
  store i32 %70, ptr %8, align 4
  br label %18

71:                                               ; preds = %18
  %72 = load i32, ptr %10, align 4
  %73 = icmp ne i32 %72, 0
  br i1 %73, label %74, label %75

74:                                               ; preds = %71
  br label %138

75:                                               ; preds = %71
  %76 = load i32, ptr %11, align 4
  %77 = add i32 %76, -1
  store i32 %77, ptr %11, align 4
  %78 = load i32, ptr %8, align 4
  %79 = add i32 %78, -1
  store i32 %79, ptr %8, align 4
  br label %80

80:                                               ; preds = %130, %75
  %81 = load i32, ptr %8, align 4
  %82 = load i32, ptr %9, align 4
  %83 = icmp ugt i32 %81, %82
  br i1 %83, label %84, label %133

84:                                               ; preds = %80
  %85 = load ptr, ptr %5, align 8
  %86 = load ptr, ptr %4, align 8
  %87 = load i32, ptr %8, align 4
  %88 = zext i32 %87 to i64
  %89 = getelementptr inbounds i8, ptr %86, i64 %88
  %90 = load i8, ptr %89, align 1
  %91 = zext i8 %90 to i64
  %92 = getelementptr inbounds i8, ptr %85, i64 %91
  %93 = load i8, ptr %92, align 1
  %94 = zext i8 %93 to i32
  %95 = load ptr, ptr %5, align 8
  %96 = load ptr, ptr %4, align 8
  %97 = load i32, ptr %8, align 4
  %98 = sub i32 %97, 1
  %99 = zext i32 %98 to i64
  %100 = getelementptr inbounds i8, ptr %96, i64 %99
  %101 = load i8, ptr %100, align 1
  %102 = zext i8 %101 to i64
  %103 = getelementptr inbounds i8, ptr %95, i64 %102
  %104 = load i8, ptr %103, align 1
  %105 = zext i8 %104 to i32
  %106 = icmp slt i32 %94, %105
  br i1 %106, label %107, label %129

107:                                              ; preds = %84
  %108 = load ptr, ptr %4, align 8
  %109 = load i32, ptr %8, align 4
  %110 = zext i32 %109 to i64
  %111 = getelementptr inbounds i8, ptr %108, i64 %110
  %112 = load i8, ptr %111, align 1
  store i8 %112, ptr %7, align 1
  %113 = load ptr, ptr %4, align 8
  %114 = load i32, ptr %8, align 4
  %115 = sub i32 %114, 1
  %116 = zext i32 %115 to i64
  %117 = getelementptr inbounds i8, ptr %113, i64 %116
  %118 = load i8, ptr %117, align 1
  %119 = load ptr, ptr %4, align 8
  %120 = load i32, ptr %8, align 4
  %121 = zext i32 %120 to i64
  %122 = getelementptr inbounds i8, ptr %119, i64 %121
  store i8 %118, ptr %122, align 1
  %123 = load i8, ptr %7, align 1
  %124 = load ptr, ptr %4, align 8
  %125 = load i32, ptr %8, align 4
  %126 = sub i32 %125, 1
  %127 = zext i32 %126 to i64
  %128 = getelementptr inbounds i8, ptr %124, i64 %127
  store i8 %123, ptr %128, align 1
  store i32 0, ptr %10, align 4
  br label %129

129:                                              ; preds = %107, %84
  br label %130

130:                                              ; preds = %129
  %131 = load i32, ptr %8, align 4
  %132 = add i32 %131, -1
  store i32 %132, ptr %8, align 4
  br label %80

133:                                              ; preds = %80
  %134 = load i32, ptr %9, align 4
  %135 = add i32 %134, 1
  store i32 %135, ptr %9, align 4
  %136 = load i32, ptr %8, align 4
  %137 = add i32 %136, 1
  store i32 %137, ptr %8, align 4
  br label %13

138:                                              ; preds = %74, %13
  ret void
}

; Function Attrs: nounwind uwtable
define internal i32 @unpack_tree(ptr noundef %0, ptr noundef %1, i32 noundef %2) #0 {
  %4 = alloca i32, align 4
  %5 = alloca ptr, align 8
  %6 = alloca ptr, align 8
  %7 = alloca i32, align 4
  %8 = alloca [256 x i8], align 16
  %9 = alloca [256 x i8], align 16
  %10 = alloca ptr, align 8
  %11 = alloca ptr, align 8
  %12 = alloca i8, align 1
  %13 = alloca i32, align 4
  %14 = alloca i16, align 2
  %15 = alloca i16, align 2
  %16 = alloca i16, align 2
  %17 = alloca i8, align 1
  %18 = alloca i8, align 1
  store ptr %0, ptr %5, align 8
  store ptr %1, ptr %6, align 8
  store i32 %2, ptr %7, align 4
  %19 = getelementptr inbounds [256 x i8], ptr %8, i64 0, i64 0
  store ptr %19, ptr %10, align 8
  %20 = load ptr, ptr %5, align 8
  %21 = getelementptr inbounds %struct.xplstate, ptr %20, i32 0, i32 14
  %22 = getelementptr inbounds [8192 x i8], ptr %21, i64 0, i64 0
  store ptr %22, ptr %11, align 8
  store i16 0, ptr %14, align 2
  store i16 0, ptr %15, align 2
  store i16 0, ptr %16, align 2
  %23 = load ptr, ptr %11, align 8
  %24 = getelementptr inbounds i8, ptr %23, i32 1
  store ptr %24, ptr %11, align 8
  %25 = load i8, ptr %23, align 1
  store i8 %25, ptr %12, align 1
  store i32 0, ptr %13, align 4
  br label %26

26:                                               ; preds = %36, %3
  %27 = load i32, ptr %13, align 4
  %28 = load i32, ptr %7, align 4
  %29 = icmp ult i32 %27, %28
  br i1 %29, label %30, label %39

30:                                               ; preds = %26
  %31 = load i32, ptr %13, align 4
  %32 = trunc i32 %31 to i8
  %33 = load i32, ptr %13, align 4
  %34 = zext i32 %33 to i64
  %35 = getelementptr inbounds [256 x i8], ptr %9, i64 0, i64 %34
  store i8 %32, ptr %35, align 1
  br label %36

36:                                               ; preds = %30
  %37 = load i32, ptr %13, align 4
  %38 = add i32 %37, 1
  store i32 %38, ptr %13, align 4
  br label %26

39:                                               ; preds = %26
  %40 = load i32, ptr %7, align 4
  store i32 %40, ptr %13, align 4
  br label %41

41:                                               ; preds = %74, %39
  %42 = load ptr, ptr %11, align 8
  %43 = getelementptr inbounds i8, ptr %42, i32 1
  store ptr %43, ptr %11, align 8
  %44 = load i8, ptr %42, align 1
  store i8 %44, ptr %17, align 1
  %45 = load i8, ptr %17, align 1
  %46 = zext i8 %45 to i32
  %47 = and i32 %46, 15
  %48 = add nsw i32 %47, 1
  %49 = trunc i32 %48 to i8
  store i8 %49, ptr %18, align 1
  %50 = load i8, ptr %17, align 1
  %51 = zext i8 %50 to i32
  %52 = ashr i32 %51, 4
  %53 = add nsw i32 %52, 1
  %54 = trunc i32 %53 to i8
  store i8 %54, ptr %17, align 1
  %55 = load i8, ptr %17, align 1
  %56 = zext i8 %55 to i32
  %57 = load i32, ptr %13, align 4
  %58 = icmp ugt i32 %56, %57
  br i1 %58, label %59, label %60

59:                                               ; preds = %41
  store i32 1, ptr %4, align 4
  br label %140

60:                                               ; preds = %41
  %61 = load i8, ptr %17, align 1
  %62 = zext i8 %61 to i32
  %63 = load i32, ptr %13, align 4
  %64 = sub i32 %63, %62
  store i32 %64, ptr %13, align 4
  br label %65

65:                                               ; preds = %69, %60
  %66 = load i8, ptr %17, align 1
  %67 = add i8 %66, -1
  store i8 %67, ptr %17, align 1
  %68 = icmp ne i8 %66, 0
  br i1 %68, label %69, label %73

69:                                               ; preds = %65
  %70 = load i8, ptr %18, align 1
  %71 = load ptr, ptr %10, align 8
  %72 = getelementptr inbounds i8, ptr %71, i32 1
  store ptr %72, ptr %10, align 8
  store i8 %70, ptr %71, align 1
  br label %65

73:                                               ; preds = %65
  br label %74

74:                                               ; preds = %73
  %75 = load i8, ptr %12, align 1
  %76 = add i8 %75, -1
  store i8 %76, ptr %12, align 1
  %77 = icmp ne i8 %75, 0
  br i1 %77, label %41, label %78

78:                                               ; preds = %74
  %79 = load i32, ptr %13, align 4
  %80 = icmp ne i32 %79, 0
  br i1 %80, label %81, label %82

81:                                               ; preds = %78
  store i32 1, ptr %4, align 4
  br label %140

82:                                               ; preds = %78
  %83 = getelementptr inbounds [256 x i8], ptr %9, i64 0, i64 0
  %84 = getelementptr inbounds [256 x i8], ptr %8, i64 0, i64 0
  %85 = load i32, ptr %7, align 4
  %86 = sub i32 %85, 1
  call void @bs(ptr noundef %83, ptr noundef %84, i32 noundef %86)
  %87 = load i32, ptr %7, align 4
  %88 = sub i32 %87, 1
  store i32 %88, ptr %13, align 4
  br label %89

89:                                               ; preds = %135, %82
  %90 = load i16, ptr %14, align 2
  %91 = zext i16 %90 to i32
  %92 = load i16, ptr %15, align 2
  %93 = zext i16 %92 to i32
  %94 = add nsw i32 %91, %93
  %95 = trunc i32 %94 to i16
  store i16 %95, ptr %14, align 2
  %96 = load i32, ptr %13, align 4
  %97 = zext i32 %96 to i64
  %98 = getelementptr inbounds [256 x i8], ptr %9, i64 0, i64 %97
  %99 = load i8, ptr %98, align 1
  %100 = zext i8 %99 to i64
  %101 = getelementptr inbounds [256 x i8], ptr %8, i64 0, i64 %100
  %102 = load i8, ptr %101, align 1
  %103 = zext i8 %102 to i32
  %104 = load i16, ptr %16, align 2
  %105 = zext i16 %104 to i32
  %106 = icmp ne i32 %103, %105
  br i1 %106, label %107, label %121

107:                                              ; preds = %89
  %108 = load i32, ptr %13, align 4
  %109 = zext i32 %108 to i64
  %110 = getelementptr inbounds [256 x i8], ptr %9, i64 0, i64 %109
  %111 = load i8, ptr %110, align 1
  %112 = zext i8 %111 to i64
  %113 = getelementptr inbounds [256 x i8], ptr %8, i64 0, i64 %112
  %114 = load i8, ptr %113, align 1
  %115 = zext i8 %114 to i16
  store i16 %115, ptr %16, align 2
  %116 = load i16, ptr %16, align 2
  %117 = zext i16 %116 to i32
  %118 = sub nsw i32 16, %117
  %119 = shl i32 1, %118
  %120 = trunc i32 %119 to i16
  store i16 %120, ptr %15, align 2
  br label %121

121:                                              ; preds = %107, %89
  %122 = load i16, ptr %14, align 2
  %123 = zext i16 %122 to i32
  %124 = load i16, ptr %16, align 2
  %125 = zext i16 %124 to i32
  %126 = shl i32 %125, 16
  %127 = or i32 %123, %126
  %128 = load ptr, ptr %6, align 8
  %129 = load i32, ptr %13, align 4
  %130 = zext i32 %129 to i64
  %131 = getelementptr inbounds [256 x i8], ptr %9, i64 0, i64 %130
  %132 = load i8, ptr %131, align 1
  %133 = zext i8 %132 to i64
  %134 = getelementptr inbounds i32, ptr %128, i64 %133
  store i32 %127, ptr %134, align 4
  br label %135

135:                                              ; preds = %121
  %136 = load i32, ptr %13, align 4
  %137 = add i32 %136, -1
  store i32 %137, ptr %13, align 4
  %138 = icmp ne i32 %136, 0
  br i1 %138, label %89, label %139

139:                                              ; preds = %135
  store i32 0, ptr %4, align 4
  br label %140

140:                                              ; preds = %139, %81, %59
  %141 = load i32, ptr %4, align 4
  ret i32 %141
}