; Function Attrs: nofree norecurse nosync nounwind memory(read, argmem: readwrite, inaccessiblemem: none) uwtable
define internal fastcc noundef i32 @unpack_tree(ptr nocapture noundef readonly %0, ptr nocapture noundef writeonly %1, i32 noundef %2) unnamed_addr #3 {
  %4 = alloca [256 x i8], align 16
  %5 = alloca [256 x i8], align 16
  %6 = getelementptr inbounds i8, ptr %0, i64 1584
  %7 = getelementptr inbounds i8, ptr %0, i64 1585
  %8 = load i8, ptr %6, align 1
  %.not68 = icmp eq i32 %2, 0
  br i1 %.not68, label %.preheader.preheader, label %.lr.ph.preheader

.lr.ph.preheader:                                 ; preds = %3
  %wide.trip.count = zext i32 %2 to i64
  br label %.lr.ph

.lr.ph:                                           ; preds = %.lr.ph.preheader, %.lr.ph
  %indvars.iv = phi i64 [ 0, %.lr.ph.preheader ], [ %indvars.iv.next, %.lr.ph ]
  %9 = trunc i64 %indvars.iv to i8
  %10 = getelementptr inbounds [256 x i8], ptr %5, i64 0, i64 %indvars.iv
  store i8 %9, ptr %10, align 1
  %indvars.iv.next = add nuw nsw i64 %indvars.iv, 1
  %exitcond.not = icmp eq i64 %indvars.iv.next, %wide.trip.count
  br i1 %exitcond.not, label %.preheader.preheader, label %.lr.ph

.preheader.preheader:                             ; preds = %.lr.ph, %3
  br label %.preheader

.preheader:                                       ; preds = %.preheader.preheader, %15
  %.042 = phi ptr [ %scevgep77, %15 ], [ %4, %.preheader.preheader ]
  %.041 = phi ptr [ %18, %15 ], [ %7, %.preheader.preheader ]
  %.040 = phi i8 [ %23, %15 ], [ %8, %.preheader.preheader ]
  %.139 = phi i32 [ %22, %15 ], [ %2, %.preheader.preheader ]
  %11 = load i8, ptr %.041, align 1
  %12 = lshr i8 %11, 4
  %narrow = add nuw nsw i8 %12, 1
  %13 = zext nneg i8 %narrow to i32
  %14 = icmp ult i32 %.139, %13
  br i1 %14, label %.loopexit, label %15

15:                                               ; preds = %.preheader
  %16 = and i8 %11, 15
  %17 = add nuw nsw i8 %16, 1
  %18 = getelementptr inbounds i8, ptr %.041, i64 1
  %19 = lshr i8 %11, 4
  %20 = zext nneg i8 %19 to i64
  %21 = add nuw nsw i64 %20, 1
  call void @llvm.memset.p0.i64(ptr noundef nonnull align 1 dereferenceable(1) %.042, i8 %17, i64 %21, i1 false)
  %22 = sub i32 %.139, %13
  %scevgep = getelementptr i8, ptr %.042, i64 1
  %scevgep77 = getelementptr i8, ptr %scevgep, i64 %20
  %23 = add i8 %.040, -1
  %.not46 = icmp eq i8 %.040, 0
  br i1 %.not46, label %24, label %.preheader

24:                                               ; preds = %15
  %.not47 = icmp eq i32 %22, 0
  br i1 %.not47, label %25, label %.loopexit

25:                                               ; preds = %24
  %26 = add nsw i32 %2, -1
  %.not69 = icmp eq i32 %26, 0
  br i1 %.not69, label %bs.exit, label %.lr.ph.preheader.i

.lr.ph.preheader.i:                               ; preds = %25, %._crit_edge55.i
  %.0.i67 = phi i32 [ %52, %._crit_edge55.i ], [ %26, %25 ]
  %.043.i66 = phi i32 [ %72, %._crit_edge55.i ], [ 0, %25 ]
  %.044.i65 = phi i32 [ %.246.in.lcssa.i, %._crit_edge55.i ], [ 0, %25 ]
  %27 = zext i32 %.044.i65 to i64
  %28 = zext i32 %.0.i67 to i64
  %.phi.trans.insert.i = getelementptr inbounds i8, ptr %5, i64 %27
  %.pre.i = load i8, ptr %.phi.trans.insert.i, align 1
  br label %.lr.ph.outer.i.outer

.lr.ph.outer.i.outer:                             ; preds = %.lr.ph.i._crit_edge.thread, %.lr.ph.preheader.i
  %.ph.i.ph = phi i8 [ %40, %.lr.ph.i._crit_edge.thread ], [ %.pre.i, %.lr.ph.preheader.i ]
  %indvars.iv.ph.i.ph = phi i64 [ %indvars.iv.next.i, %.lr.ph.i._crit_edge.thread ], [ %27, %.lr.ph.preheader.i ]
  %.not.i = phi i1 [ true, %.lr.ph.i._crit_edge.thread ], [ false, %.lr.ph.preheader.i ]
  br label %.lr.ph.outer.i

.lr.ph.outer.i:                                   ; preds = %.lr.ph.outer.i.outer, %.lr.ph.i._crit_edge
  %.ph.i = phi i8 [ %33, %.lr.ph.i._crit_edge ], [ %.ph.i.ph, %.lr.ph.outer.i.outer ]
  %indvars.iv.ph.i = phi i64 [ %indvars.iv.next.i60, %.lr.ph.i._crit_edge ], [ %indvars.iv.ph.i.ph, %.lr.ph.outer.i.outer ]
  %29 = zext i8 %.ph.i to i64
  %30 = getelementptr inbounds i8, ptr %4, i64 %29
  %31 = load i8, ptr %30, align 1
  %indvars.iv.next.i60 = add nuw nsw i64 %indvars.iv.ph.i, 1
  %32 = getelementptr inbounds i8, ptr %5, i64 %indvars.iv.next.i60
  %33 = load i8, ptr %32, align 1
  %34 = zext i8 %33 to i64
  %35 = getelementptr inbounds i8, ptr %4, i64 %34
  %36 = load i8, ptr %35, align 1
  %37 = icmp ugt i8 %31, %36
  br i1 %37, label %.thread.i.preheader, label %.lr.ph.i._crit_edge

.thread.i.preheader:                              ; preds = %.lr.ph.outer.i
  %38 = getelementptr inbounds i8, ptr %5, i64 %indvars.iv.next.i60
  br label %.thread.i

.lr.ph.i:                                         ; preds = %.thread.i
  %indvars.iv.next.i = add nuw nsw i64 %indvars.iv.next.i62, 1
  %39 = getelementptr inbounds i8, ptr %5, i64 %indvars.iv.next.i
  %40 = load i8, ptr %39, align 1
  %41 = zext i8 %40 to i64
  %42 = getelementptr inbounds i8, ptr %4, i64 %41
  %43 = load i8, ptr %42, align 1
  %44 = icmp ugt i8 %31, %43
  br i1 %44, label %.thread.i, label %.lr.ph.i._crit_edge.thread

.lr.ph.i._crit_edge:                              ; preds = %.lr.ph.outer.i
  %45 = icmp ult i64 %indvars.iv.next.i60, %28
  br i1 %45, label %.lr.ph.outer.i, label %._crit_edge.i

.lr.ph.i._crit_edge.thread:                       ; preds = %.lr.ph.i
  %46 = icmp ult i64 %indvars.iv.next.i, %28
  br i1 %46, label %.lr.ph.outer.i.outer, label %._crit_edge.thread66.i

.thread.i:                                        ; preds = %.thread.i.preheader, %.lr.ph.i
  %47 = phi i8 [ %40, %.lr.ph.i ], [ %33, %.thread.i.preheader ]
  %48 = phi ptr [ %39, %.lr.ph.i ], [ %38, %.thread.i.preheader ]
  %indvars.iv.next.i62 = phi i64 [ %indvars.iv.next.i, %.lr.ph.i ], [ %indvars.iv.next.i60, %.thread.i.preheader ]
  %indvars.iv.i61 = phi i64 [ %indvars.iv.next.i62, %.lr.ph.i ], [ %indvars.iv.ph.i, %.thread.i.preheader ]
  %49 = getelementptr inbounds i8, ptr %5, i64 %indvars.iv.i61
  store i8 %47, ptr %49, align 1
  store i8 %.ph.i, ptr %48, align 1
  %50 = icmp ult i64 %indvars.iv.next.i62, %28
  br i1 %50, label %.lr.ph.i, label %._crit_edge.thread66.i

._crit_edge.i:                                    ; preds = %.lr.ph.i._crit_edge
  br i1 %.not.i, label %._crit_edge.thread66.i, label %bs.exit

._crit_edge.thread66.i:                           ; preds = %.lr.ph.i._crit_edge.thread, %.thread.i, %._crit_edge.i
  %indvars.iv.next.i53 = phi i64 [ %indvars.iv.next.i60, %._crit_edge.i ], [ %indvars.iv.next.i62, %.thread.i ], [ %indvars.iv.next.i, %.lr.ph.i._crit_edge.thread ]
  %51 = trunc i64 %indvars.iv.next.i53 to i32
  %52 = add i32 %.0.i67, -1
  %.24650.i = add i32 %51, -1
  %53 = icmp ugt i32 %.24650.i, %.043.i66
  br i1 %53, label %.lr.ph54.preheader.i, label %._crit_edge55.i

.lr.ph54.preheader.i:                             ; preds = %._crit_edge.thread66.i
  %54 = zext i32 %.24650.i to i64
  br label %.lr.ph54.i

.lr.ph54.i:                                       ; preds = %69, %.lr.ph54.preheader.i
  %indvars.iv58.i = phi i64 [ %54, %.lr.ph54.preheader.i ], [ %indvars.iv.next59.i, %69 ]
  %.246.in51.i = phi i64 [ %indvars.iv.next.i53, %.lr.ph54.preheader.i ], [ %indvars.iv58.i, %69 ]
  %55 = getelementptr inbounds i8, ptr %5, i64 %indvars.iv58.i
  %56 = load i8, ptr %55, align 1
  %57 = zext i8 %56 to i64
  %58 = getelementptr inbounds i8, ptr %4, i64 %57
  %59 = load i8, ptr %58, align 1
  %60 = add i64 %.246.in51.i, 4294967294
  %61 = and i64 %60, 4294967295
  %62 = getelementptr inbounds i8, ptr %5, i64 %61
  %63 = load i8, ptr %62, align 1
  %64 = zext i8 %63 to i64
  %65 = getelementptr inbounds i8, ptr %4, i64 %64
  %66 = load i8, ptr %65, align 1
  %67 = icmp ult i8 %59, %66
  br i1 %67, label %68, label %69

68:                                               ; preds = %.lr.ph54.i
  store i8 %63, ptr %55, align 1
  store i8 %56, ptr %62, align 1
  br label %69

69:                                               ; preds = %68, %.lr.ph54.i
  %indvars.iv.next59.i = add nsw i64 %indvars.iv58.i, -1
  %indvars.i = trunc i64 %indvars.iv.next59.i to i32
  %70 = icmp ult i32 %.043.i66, %indvars.i
  br i1 %70, label %.lr.ph54.i, label %._crit_edge55.i.loopexit

._crit_edge55.i.loopexit:                         ; preds = %69
  %71 = trunc nuw i64 %indvars.iv58.i to i32
  br label %._crit_edge55.i

._crit_edge55.i:                                  ; preds = %._crit_edge55.i.loopexit, %._crit_edge.thread66.i
  %.246.in.lcssa.i = phi i32 [ %51, %._crit_edge.thread66.i ], [ %71, %._crit_edge55.i.loopexit ]
  %72 = add i32 %.043.i66, 1
  %73 = icmp ult i32 %.246.in.lcssa.i, %52
  br i1 %73, label %.lr.ph.preheader.i, label %bs.exit

bs.exit:                                          ; preds = %._crit_edge.i, %._crit_edge55.i, %25
  %74 = zext i32 %26 to i64
  br label %75

75:                                               ; preds = %75, %bs.exit
  %indvars.iv78 = phi i64 [ %indvars.iv.next79, %75 ], [ %74, %bs.exit ]
  %.037 = phi i32 [ %77, %75 ], [ 0, %bs.exit ]
  %.035 = phi i16 [ %.136, %75 ], [ 0, %bs.exit ]
  %.034 = phi i16 [ %83, %75 ], [ 0, %bs.exit ]
  %76 = zext i16 %.035 to i32
  %77 = add i32 %.037, %76
  %78 = getelementptr inbounds [256 x i8], ptr %5, i64 0, i64 %indvars.iv78
  %79 = load i8, ptr %78, align 1
  %80 = zext i8 %79 to i64
  %81 = getelementptr inbounds [256 x i8], ptr %4, i64 0, i64 %80
  %82 = load i8, ptr %81, align 1
  %83 = zext i8 %82 to i16
  %.not48 = icmp eq i16 %.034, %83
  %84 = zext i8 %82 to i32
  %85 = sub nsw i32 16, %84
  %86 = shl nuw nsw i32 1, %85
  %87 = trunc i32 %86 to i16
  %.136 = select i1 %.not48, i16 %.035, i16 %87
  %88 = and i32 %77, 65535
  %89 = shl nuw nsw i32 %84, 16
  %90 = or disjoint i32 %89, %88
  %91 = getelementptr inbounds i32, ptr %1, i64 %80
  store i32 %90, ptr %91, align 4
  %.not49 = icmp eq i64 %indvars.iv78, 0
  %indvars.iv.next79 = add nsw i64 %indvars.iv78, -1
  br i1 %.not49, label %.loopexit, label %75

.loopexit:                                        ; preds = %.preheader, %75, %24
  %.0 = phi i32 [ 1, %24 ], [ 0, %75 ], [ 1, %.preheader ]
  ret i32 %.0
}